target datalayout = "e-m:e-p270:32:32-p271:32:32-p272:64:64-i64:64-i128:128-f80:128-n8:16:32:64-S128"
target triple = "x86_64-pc-linux-gnu"

@.str = private unnamed_addr constant [13 x i8] c"local-dialog\00", align 1
@.str.382 = private unnamed_addr constant [18 x i8] c"autosave_interval\00", align 1

; Function Attrs: nounwind uwtable
define internal void @preferences_response_callback_idm259(ptr noundef %0, i32 noundef %1, ptr noundef %2) #0 {
  %4 = alloca ptr, align 8
  %5 = alloca i32, align 4
  %6 = alloca ptr, align 8
  %7 = alloca i32, align 4
  %8 = alloca i32, align 4
  %9 = alloca float, align 4
  store ptr %0, ptr %4, align 8, !tbaa !62
  store i32 %1, ptr %5, align 4, !tbaa !57
  store ptr %2, ptr %6, align 8, !tbaa !6
  call void @llvm.lifetime.start.p0(i64 4, ptr %7) #10
  %10 = load ptr, ptr %4, align 8, !tbaa !62
  %11 = call ptr @g_type_check_instance_cast(ptr noundef %10, i64 noundef 80)
  %12 = call ptr @g_object_get_data(ptr noundef %11, ptr noundef @.str)
  %13 = ptrtoint ptr %12 to i64
  %14 = trunc i64 %13 to i32
  store i32 %14, ptr %7, align 4, !tbaa !57
  %15 = load i32, ptr %7, align 4, !tbaa !57
  %16 = icmp ne i32 %15, 0
  br i1 %16, label %17, label %26

17:                                               ; preds = %3
  %18 = load i32, ptr %5, align 4, !tbaa !57
  %19 = icmp eq i32 %18, -1
  br i1 %19, label %20, label %21

20:                                               ; preds = %17
  store i32 1, ptr %8, align 4
  br label %46

21:                                               ; preds = %17
  %22 = load i32, ptr %5, align 4, !tbaa !57
  %23 = icmp eq i32 %22, -4
  br i1 %23, label %24, label %25

24:                                               ; preds = %21
  store i32 1, ptr %8, align 4
  br label %46

25:                                               ; preds = %21
  br label %31

26:                                               ; preds = %3
  %27 = load i32, ptr %5, align 4, !tbaa !57
  %28 = icmp ne i32 %27, -4
  br i1 %28, label %29, label %30

29:                                               ; preds = %26
  store i32 1, ptr %8, align 4
  br label %46

30:                                               ; preds = %26
  br label %31

31:                                               ; preds = %30, %25
  %32 = load ptr, ptr %4, align 8, !tbaa !62
  %33 = call i64 @gtk_widget_get_type() #11
  %34 = call ptr @g_type_check_instance_cast(ptr noundef %32, i64 noundef %33)
  call void @gtk_widget_set_can_focus(ptr noundef %34, i32 noundef 1)
  %35 = load ptr, ptr %4, align 8, !tbaa !62
  %36 = call i64 @gtk_widget_get_type() #11
  %37 = call ptr @g_type_check_instance_cast(ptr noundef %35, i64 noundef %36)
  call void @gtk_widget_grab_focus(ptr noundef %37)
  call void @llvm.lifetime.start.p0(i64 4, ptr %9) #10
  store float 1.000000e+00, ptr %9, align 4, !tbaa !58
  %38 = load ptr, ptr %6, align 8, !tbaa !6
  %39 = call i64 @gtk_spin_button_get_type() #11
  %40 = call ptr @g_type_check_instance_cast(ptr noundef %38, i64 noundef %39)
  %41 = call reassoc nsz arcp contract afn double @gtk_spin_button_get_value(ptr noundef %40)
  %42 = load float, ptr %9, align 4, !tbaa !58
  %43 = fpext reassoc nsz arcp contract afn float %42 to double
  %44 = fdiv reassoc nsz arcp contract afn double %41, %43
  %45 = fptosi double %44 to i32
  call void @dt_conf_set_int(ptr noundef @.str.382, i32 noundef %45)
  call void @llvm.lifetime.end.p0(i64 4, ptr %9) #10
  store i32 0, ptr %8, align 4
  br label %46

46:                                               ; preds = %31, %29, %24, %20
  call void @llvm.lifetime.end.p0(i64 4, ptr %7) #10
  %47 = load i32, ptr %8, align 4
  switch i32 %47, label %49 [
    i32 0, label %48
    i32 1, label %48
  ]

48:                                               ; preds = %46, %46
  ret void

49:                                               ; preds = %46
  unreachable
}